target datalayout = "e-m:e-p270:32:32-p271:32:32-p272:64:64-i64:64-i128:128-f80:128-n8:16:32:64-S128"
target triple = "x86_64-pc-linux-gnu"

@.str.10 = private unnamed_addr constant [1 x i8] zeroinitializer, align 1
@.str.11 = private unnamed_addr constant [3 x i8] c"%d\00", align 1

; Function Attrs: inlinehint nounwind uwtable
define internal i64 @PointerGetDatum(ptr noundef %0) #3 {
  %2 = alloca ptr, align 8
  store ptr %0, ptr %2, align 8
  %3 = load ptr, ptr %2, align 8
  %4 = ptrtoint ptr %3 to i64
  ret i64 %4
}

; Function Attrs: inlinehint nounwind uwtable
define internal i64 @ObjectIdGetDatum(i32 noundef %0) #3 {
  %2 = alloca i32, align 4
  store i32 %0, ptr %2, align 4
  %3 = load i32, ptr %2, align 4
  %4 = zext i32 %3 to i64
  ret i64 %4
}

; Function Attrs: inlinehint nounwind uwtable
define internal i64 @CStringGetDatum(ptr noundef %0) #3 {
  %2 = alloca ptr, align 8
  store ptr %0, ptr %2, align 8
  %3 = load ptr, ptr %2, align 8
  %4 = call i64 @PointerGetDatum(ptr noundef %3)
  ret i64 %4
}

; Function Attrs: nounwind uwtable
define dso_local ptr @makeArrayTypeName(ptr noundef %0, i32 noundef %1) #0 {
  %3 = alloca ptr, align 8
  %4 = alloca i32, align 4
  %5 = alloca ptr, align 8
  %6 = alloca i32, align 4
  %7 = alloca [64 x i8], align 16
  store ptr %0, ptr %3, align 8
  store i32 %1, ptr %4, align 4
  call void @llvm.lifetime.start.p0(i64 8, ptr %5) #7
  call void @llvm.lifetime.start.p0(i64 4, ptr %6) #7
  store i32 0, ptr %6, align 4
  call void @llvm.lifetime.start.p0(i64 64, ptr %7) #7
  %8 = load ptr, ptr %3, align 8
  %9 = call ptr @makeObjectName(ptr noundef @.str.10, ptr noundef %8, ptr noundef null)
  store ptr %9, ptr %5, align 8
  br label %10

10:                                               ; preds = %17, %2
  %11 = load ptr, ptr %5, align 8
  %12 = call i64 @CStringGetDatum(ptr noundef %11)
  %13 = load i32, ptr %4, align 4
  %14 = call i64 @ObjectIdGetDatum(i32 noundef %13)
  %15 = call zeroext i1 @SearchSysCacheExists(i32 noundef 81, i64 noundef %12, i64 noundef %14, i64 noundef 0, i64 noundef 0)
  br i1 %15, label %17, label %16

16:                                               ; preds = %10
  br label %26

17:                                               ; preds = %10
  %18 = load ptr, ptr %5, align 8
  call void @pfree(ptr noundef %18)
  %19 = getelementptr inbounds [64 x i8], ptr %7, i64 0, i64 0
  %20 = load i32, ptr %6, align 4
  %21 = add i32 %20, 1
  store i32 %21, ptr %6, align 4
  %22 = call i32 (ptr, i64, ptr, ...) @pg_snprintf(ptr noundef %19, i64 noundef 64, ptr noundef @.str.11, i32 noundef %21)
  %23 = load ptr, ptr %3, align 8
  %24 = getelementptr inbounds [64 x i8], ptr %7, i64 0, i64 0
  %25 = call ptr @makeObjectName(ptr noundef @.str.10, ptr noundef %23, ptr noundef %24)
  store ptr %25, ptr %5, align 8
  br label %10

26:                                               ; preds = %16
  %27 = load ptr, ptr %5, align 8
  call void @llvm.lifetime.end.p0(i64 64, ptr %7) #7
  call void @llvm.lifetime.end.p0(i64 4, ptr %6) #7
  call void @llvm.lifetime.end.p0(i64 8, ptr %5) #7
  ret ptr %27
}