; Function Attrs: nounwind uwtable
define dso_local ptr @makeArrayTypeName(ptr noundef %0, i32 noundef %1) local_unnamed_addr #0 {
  %3 = alloca [64 x i8], align 16
  call void @llvm.lifetime.start.p0(i64 64, ptr nonnull %3) #8
  %4 = tail call ptr @makeObjectName(ptr noundef nonnull @.str.10, ptr noundef %0, ptr noundef null) #8
  %5 = zext i32 %1 to i64
  %6 = ptrtoint ptr %4 to i64
  %7 = tail call zeroext i1 @SearchSysCacheExists(i32 noundef 81, i64 noundef %6, i64 noundef %5, i64 noundef 0, i64 noundef 0) #8
  br i1 %7, label %.lr.ph, label %._crit_edge

.lr.ph:                                           ; preds = %2, %.lr.ph
  %.08 = phi i32 [ %8, %.lr.ph ], [ 0, %2 ]
  %.067 = phi ptr [ %10, %.lr.ph ], [ %4, %2 ]
  call void @pfree(ptr noundef %.067) #8
  %8 = add i32 %.08, 1
  %9 = call i32 (ptr, i64, ptr, ...) @pg_snprintf(ptr noundef nonnull %3, i64 noundef 64, ptr noundef nonnull @.str.11, i32 noundef %8) #8
  %10 = call ptr @makeObjectName(ptr noundef nonnull @.str.10, ptr noundef %0, ptr noundef nonnull %3) #8
  %11 = ptrtoint ptr %10 to i64
  %12 = call zeroext i1 @SearchSysCacheExists(i32 noundef 81, i64 noundef %11, i64 noundef %5, i64 noundef 0, i64 noundef 0) #8
  br i1 %12, label %.lr.ph, label %._crit_edge

._crit_edge:                                      ; preds = %.lr.ph, %2
  %.06.lcssa = phi ptr [ %4, %2 ], [ %10, %.lr.ph ]
  call void @llvm.lifetime.end.p0(i64 64, ptr nonnull %3) #8
  ret ptr %.06.lcssa
}